target datalayout = "e-m:e-p270:32:32-p271:32:32-p272:64:64-i64:64-i128:128-f80:128-n8:16:32:64-S128"
target triple = "x86_64-pc-linux-gnu"

; Function Attrs: mustprogress nounwind uwtable
define dso_local noundef i32 @_ZN6asmjit9_abi_1_107InstAPI14instIdToStringENS0_4ArchEjRNS0_6StringE(i8 noundef zeroext %0, i32 noundef %1, ptr noundef nonnull align 8 dereferenceable(32) %2) local_unnamed_addr #0 {
  %4 = add i8 %0, -1
  %5 = icmp ult i8 %4, 2
  br i1 %5, label %6, label %8

6:                                                ; preds = %3
  %7 = tail call noundef i32 @_ZN6asmjit9_abi_1_103x8612InstInternal14instIdToStringENS0_4ArchEjRNS0_6StringE(i8 noundef zeroext %0, i32 noundef %1, ptr noundef nonnull align 8 dereferenceable(32) %2) #2
  br label %8

8:                                                ; preds = %6, %3
  %9 = phi i32 [ %7, %6 ], [ 4, %3 ]
  ret i32 %9
}

; Function Attrs: nounwind
declare noundef i32 @_ZN6asmjit9_abi_1_103x8612InstInternal14instIdToStringENS0_4ArchEjRNS0_6StringE(i8 noundef zeroext, i32 noundef, ptr noundef nonnull align 8 dereferenceable(32)) local_unnamed_addr #1

; Function Attrs: mustprogress nounwind uwtable
define dso_local noundef i32 @_ZN6asmjit9_abi_1_107InstAPI14stringToInstIdENS0_4ArchEPKcm(i8 noundef zeroext %0, ptr noundef %1, i64 noundef %2) local_unnamed_addr #0 {
  %4 = add i8 %0, -1
  %5 = icmp ult i8 %4, 2
  br i1 %5, label %6, label %8

6:                                                ; preds = %3
  %7 = tail call noundef i32 @_ZN6asmjit9_abi_1_103x8612InstInternal14stringToInstIdENS0_4ArchEPKcm(i8 noundef zeroext %0, ptr noundef %1, i64 noundef %2) #2
  br label %8

8:                                                ; preds = %6, %3
  %9 = phi i32 [ %7, %6 ], [ 0, %3 ]
  ret i32 %9
}

; Function Attrs: nounwind
declare noundef i32 @_ZN6asmjit9_abi_1_103x8612InstInternal14stringToInstIdENS0_4ArchEPKcm(i8 noundef zeroext, ptr noundef, i64 noundef) local_unnamed_addr #1

; Function Attrs: mustprogress nounwind uwtable
define dso_local noundef i32 @_ZN6asmjit9_abi_1_107InstAPI8validateENS0_4ArchERKNS0_8BaseInstEPKNS0_8Operand_EmNS0_15ValidationFlagsE(i8 noundef zeroext %0, ptr noundef nonnull align 4 dereferenceable(16) %1, ptr noundef %2, i64 noundef %3, i32 noundef %4) local_unnamed_addr #0 {
  %6 = add i8 %0, -1
  %7 = icmp ult i8 %6, 2
  br i1 %7, label %8, label %10

8:                                                ; preds = %5
  %9 = tail call noundef i32 @_ZN6asmjit9_abi_1_103x8612InstInternal8validateENS0_4ArchERKNS0_8BaseInstEPKNS0_8Operand_EmNS0_15ValidationFlagsE(i8 noundef zeroext %0, ptr noundef nonnull align 4 dereferenceable(16) %1, ptr noundef %2, i64 noundef %3, i32 noundef %4) #2
  br label %10

10:                                               ; preds = %8, %5
  %11 = phi i32 [ %9, %8 ], [ 4, %5 ]
  ret i32 %11
}

; Function Attrs: nounwind
declare noundef i32 @_ZN6asmjit9_abi_1_103x8612InstInternal8validateENS0_4ArchERKNS0_8BaseInstEPKNS0_8Operand_EmNS0_15ValidationFlagsE(i8 noundef zeroext, ptr noundef nonnull align 4 dereferenceable(16), ptr noundef, i64 noundef, i32 noundef) local_unnamed_addr #1

; Function Attrs: mustprogress nounwind uwtable
define dso_local noundef i32 @_ZN6asmjit9_abi_1_107InstAPI11queryRWInfoENS0_4ArchERKNS0_8BaseInstEPKNS0_8Operand_EmPNS0_10InstRWInfoE(i8 noundef zeroext %0, ptr noundef nonnull align 4 dereferenceable(16) %1, ptr noundef %2, i64 noundef %3, ptr noundef %4) local_unnamed_addr #0 {
  %6 = icmp ugt i64 %3, 6
  br i1 %6, label %12, label %7, !prof !3

7:                                                ; preds = %5
  %8 = add i8 %0, -1
  %9 = icmp ult i8 %8, 2
  br i1 %9, label %10, label %12

10:                                               ; preds = %7
  %11 = tail call noundef i32 @_ZN6asmjit9_abi_1_103x8612InstInternal11queryRWInfoENS0_4ArchERKNS0_8BaseInstEPKNS0_8Operand_EmPNS0_10InstRWInfoE(i8 noundef zeroext %0, ptr noundef nonnull align 4 dereferenceable(16) %1, ptr noundef %2, i64 noundef %3, ptr noundef %4) #2
  br label %12

12:                                               ; preds = %10, %7, %5
  %13 = phi i32 [ %11, %10 ], [ 2, %5 ], [ 4, %7 ]
  ret i32 %13
}

; Function Attrs: nounwind
declare noundef i32 @_ZN6asmjit9_abi_1_103x8612InstInternal11queryRWInfoENS0_4ArchERKNS0_8BaseInstEPKNS0_8Operand_EmPNS0_10InstRWInfoE(i8 noundef zeroext, ptr noundef nonnull align 4 dereferenceable(16), ptr noundef, i64 noundef, ptr noundef) local_unnamed_addr #1

; Function Attrs: mustprogress nounwind uwtable
define dso_local noundef i32 @_ZN6asmjit9_abi_1_107InstAPI13queryFeaturesENS0_4ArchERKNS0_8BaseInstEPKNS0_8Operand_EmPNS0_11CpuFeaturesE(i8 noundef zeroext %0, ptr noundef nonnull align 4 dereferenceable(16) %1, ptr noundef %2, i64 noundef %3, ptr noundef %4) local_unnamed_addr #0 {
  %6 = add i8 %0, -1
  %7 = icmp ult i8 %6, 2
  br i1 %7, label %8, label %10

8:                                                ; preds = %5
  %9 = tail call noundef i32 @_ZN6asmjit9_abi_1_103x8612InstInternal13queryFeaturesENS0_4ArchERKNS0_8BaseInstEPKNS0_8Operand_EmPNS0_11CpuFeaturesE(i8 noundef zeroext %0, ptr noundef nonnull align 4 dereferenceable(16) %1, ptr noundef %2, i64 noundef %3, ptr noundef %4) #2
  br label %10

10:                                               ; preds = %8, %5
  %11 = phi i32 [ %9, %8 ], [ 4, %5 ]
  ret i32 %11
}

; Function Attrs: nounwind
declare noundef i32 @_ZN6asmjit9_abi_1_103x8612InstInternal13queryFeaturesENS0_4ArchERKNS0_8BaseInstEPKNS0_8Operand_EmPNS0_11CpuFeaturesE(i8 noundef zeroext, ptr noundef nonnull align 4 dereferenceable(16), ptr noundef, i64 noundef, ptr noundef) local_unnamed_addr #1


!llvm.module.flags = !{!0, !1, !2}

!0 = !{i32 1, !"wchar_size", i32 4}
!1 = !{i32 8, !"PIC Level", i32 2}
!2 = !{i32 7, !"uwtable", i32 2}
!3 = !{!"branch_weights", i32 1, i32 2000}
